	.file	"Main.c"
	.text
.Ltext0:
	.comm	Glob_x,4,4
	.comm	Glob_y,4,4
	.globl	VERSION
	.section	.rodata
.LC0:
	.string	"0.1.02"
	.data
	.align 4
	.type	VERSION, @object
	.size	VERSION, 4
VERSION:
	.long	.LC0
	.globl	AUTHOR
	.section	.rodata
.LC1:
	.string	"OSLAB"
	.data
	.align 4
	.type	AUTHOR, @object
	.size	AUTHOR, 4
AUTHOR:
	.long	.LC1
	.globl	MODIFIER
	.section	.rodata
.LC2:
	.string	"You"
	.data
	.align 4
	.type	MODIFIER, @object
	.size	MODIFIER, 4
MODIFIER:
	.long	.LC2
	.text
	.globl	ssuos_main
	.type	ssuos_main, @function
ssuos_main:
.LFB3:
	.file 1 "arch/Main.c"
	.loc 1 29 0
	.cfi_startproc
	pushl	%ebp
	.cfi_def_cfa_offset 8
	.cfi_offset 5, -8
	movl	%esp, %ebp
	.cfi_def_cfa_register 5
	subl	$8, %esp
	.loc 1 30 0
	call	main_init
	.loc 1 33 0
	subl	$12, %esp
	pushl	$0
	call	idle
	addl	$16, %esp
	.loc 1 35 0
	nop
	.loc 1 36 0
	leave
	.cfi_restore 5
	.cfi_def_cfa 4, 4
	ret
	.cfi_endproc
.LFE3:
	.size	ssuos_main, .-ssuos_main
	.section	.rodata
.LC3:
	.string	"Memory Detecting\n"
.LC4:
	.string	"%s"
.LC5:
	.string	"PIT Initialization\n"
.LC6:
	.string	"System call Initialization\n"
.LC7:
	.string	"Interrupt Initialization\n"
.LC8:
	.string	"%sPalloc Initialization\n"
.LC9:
	.string	"Paging Initialization\n"
.LC10:
	.string	"Process Initialization\n"
	.align 4
.LC11:
	.string	"========== initialization complete ==========\n\n"
	.text
	.globl	main_init
	.type	main_init, @function
main_init:
.LFB4:
	.loc 1 39 0
	.cfi_startproc
	pushl	%ebp
	.cfi_def_cfa_offset 8
	.cfi_offset 5, -8
	movl	%esp, %ebp
	.cfi_def_cfa_register 5
	subl	$8, %esp
	.loc 1 40 0
	call	intr_disable
	.loc 1 42 0
	call	init_console
	.loc 1 44 0
	call	print_contributors
	.loc 1 46 0
	call	detect_mem
	.loc 1 47 0
	subl	$8, %esp
	pushl	$.LC3
	pushl	$.LC4
	call	printk
	addl	$16, %esp
	.loc 1 49 0
	call	init_pit
	.loc 1 50 0
	subl	$8, %esp
	pushl	$.LC5
	pushl	$.LC4
	call	printk
	addl	$16, %esp
	.loc 1 52 0
	call	init_syscall
	.loc 1 53 0
	subl	$8, %esp
	pushl	$.LC6
	pushl	$.LC4
	call	printk
	addl	$16, %esp
	.loc 1 55 0
	call	init_intr
	.loc 1 56 0
	subl	$8, %esp
	pushl	$.LC7
	pushl	$.LC4
	call	printk
	addl	$16, %esp
	.loc 1 58 0
	call	init_kbd
	.loc 1 60 0
	call	init_palloc
	.loc 1 61 0
	subl	$12, %esp
	pushl	$.LC8
	call	printk
	addl	$16, %esp
	.loc 1 63 0
	call	init_paging
	.loc 1 64 0
	subl	$8, %esp
	pushl	$.LC9
	pushl	$.LC4
	call	printk
	addl	$16, %esp
	.loc 1 66 0
	call	init_proc
	.loc 1 67 0
	subl	$8, %esp
	pushl	$.LC10
	pushl	$.LC4
	call	printk
	addl	$16, %esp
	.loc 1 69 0
	call	intr_enable
	.loc 1 71 0
	subl	$12, %esp
	pushl	$.LC11
	call	printk
	addl	$16, %esp
	.loc 1 77 0
	nop
	leave
	.cfi_restore 5
	.cfi_def_cfa 4, 4
	ret
	.cfi_endproc
.LFE4:
	.size	main_init, .-main_init
	.section	.rodata
.LC12:
	.string	"SSUOS main start!!!!\n"
	.align 4
.LC13:
	.string	"          ______    ______   __    __         ______    ______  \n"
	.align 4
.LC14:
	.string	"         /      \\  /      \\ /  |  /  |       /      \\  /      \\ \n"
	.align 4
.LC15:
	.string	"        /$$$$$$  |/$$$$$$  |$$ |  $$ |      /$$$$$$  |/$$$$$$  |\n"
	.align 4
.LC16:
	.string	"        $$ \\__$$/ $$ \\__$$/ $$ |  $$ |      $$ |  $$ |$$ \\__$$/ \n"
	.align 4
.LC17:
	.string	"        $$      \\ $$      \\ $$ |  $$ |      $$ |  $$ |$$      \\ \n"
	.align 4
.LC18:
	.string	"         $$$$$$  | $$$$$$  |$$ |  $$ |      $$ |  $$ | $$$$$$  |\n"
	.align 4
.LC19:
	.string	"        /  \\__$$ |/  \\__$$ |$$ \\__$$ |      $$ \\__$$ |/  \\__$$ |\n"
	.align 4
.LC20:
	.string	"        $$    $$/ $$    $$/ $$    $$/       $$    $$/ $$    $$/ \n"
	.align 4
.LC21:
	.string	"         $$$$$$/   $$$$$$/   $$$$$$/         $$$$$$/   $$$$$$/  \n"
.LC22:
	.string	"\n"
	.align 4
.LC23:
	.string	"****************Made by OSLAB in SoongSil University*********************\n"
	.align 4
.LC24:
	.string	"contributors : Yunkyu Lee  , Minwoo Jang  , Sanghun Choi , Eunseok Choi\n"
	.align 4
.LC25:
	.string	"               Hyunho Ji   , Giwook Kang  , Kisu Kim     , Seonguk Lee \n"
	.align 4
.LC26:
	.string	"               Gibeom Byeon, Jeonghwan Lee, Kyoungmin Kim, Myungjoon Shon\n"
	.align 4
.LC27:
	.string	"               Jinwoo Lee, Hansol Lee, Mhanwoo Heo\n"
	.align 4
.LC28:
	.string	"************************  Professor. Jiman Hong  ************************\n"
	.align 4
.LC29:
	.string	"                                                                  \n"
	.text
	.globl	print_contributors
	.type	print_contributors, @function
print_contributors:
.LFB5:
	.loc 1 80 0
	.cfi_startproc
	pushl	%ebp
	.cfi_def_cfa_offset 8
	.cfi_offset 5, -8
	movl	%esp, %ebp
	.cfi_def_cfa_register 5
	subl	$8, %esp
	.loc 1 81 0
	subl	$8, %esp
	pushl	$.LC12
	pushl	$.LC4
	call	printk
	addl	$16, %esp
	.loc 1 82 0
	subl	$12, %esp
	pushl	$.LC13
	call	printk
	addl	$16, %esp
	.loc 1 83 0
	subl	$12, %esp
	pushl	$.LC14
	call	printk
	addl	$16, %esp
	.loc 1 84 0
	subl	$12, %esp
	pushl	$.LC15
	call	printk
	addl	$16, %esp
	.loc 1 85 0
	subl	$12, %esp
	pushl	$.LC16
	call	printk
	addl	$16, %esp
	.loc 1 86 0
	subl	$12, %esp
	pushl	$.LC17
	call	printk
	addl	$16, %esp
	.loc 1 87 0
	subl	$12, %esp
	pushl	$.LC18
	call	printk
	addl	$16, %esp
	.loc 1 88 0
	subl	$12, %esp
	pushl	$.LC19
	call	printk
	addl	$16, %esp
	.loc 1 89 0
	subl	$12, %esp
	pushl	$.LC20
	call	printk
	addl	$16, %esp
	.loc 1 90 0
	subl	$12, %esp
	pushl	$.LC21
	call	printk
	addl	$16, %esp
	.loc 1 91 0
	subl	$12, %esp
	pushl	$.LC22
	call	printk
	addl	$16, %esp
	.loc 1 92 0
	subl	$12, %esp
	pushl	$.LC23
	call	printk
	addl	$16, %esp
	.loc 1 93 0
	subl	$12, %esp
	pushl	$.LC22
	call	printk
	addl	$16, %esp
	.loc 1 94 0
	subl	$12, %esp
	pushl	$.LC24
	call	printk
	addl	$16, %esp
	.loc 1 95 0
	subl	$12, %esp
	pushl	$.LC25
	call	printk
	addl	$16, %esp
	.loc 1 96 0
	subl	$12, %esp
	pushl	$.LC26
	call	printk
	addl	$16, %esp
	.loc 1 97 0
	subl	$12, %esp
	pushl	$.LC27
	call	printk
	addl	$16, %esp
	.loc 1 98 0
	subl	$12, %esp
	pushl	$.LC22
	call	printk
	addl	$16, %esp
	.loc 1 99 0
	subl	$12, %esp
	pushl	$.LC28
	call	printk
	addl	$16, %esp
	.loc 1 100 0
	subl	$12, %esp
	pushl	$.LC29
	call	printk
	addl	$16, %esp
	.loc 1 101 0
	nop
	leave
	.cfi_restore 5
	.cfi_def_cfa 4, 4
	ret
	.cfi_endproc
.LFE5:
	.size	print_contributors, .-print_contributors
.Letext0:
	.file 2 "./include/device/console.h"
	.file 3 "./include/syscall.h"
	.section	.note.GNU-stack,"",@progbits
